target datalayout = "e-m:e-p270:32:32-p271:32:32-p272:64:64-i64:64-i128:128-f80:128-n8:16:32:64-S128"
target triple = "x86_64-pc-linux-gnu"

%struct.boxf = type { %struct.pointf_s, %struct.pointf_s }
%struct.pointf_s = type { double, double }

; Function Attrs: inlinehint nounwind uwtable
define internal { double, double } @add_pointf(double %0, double %1, double %2, double %3) #2 {
  %5 = alloca %struct.pointf_s, align 8
  %6 = alloca %struct.pointf_s, align 8
  %7 = alloca %struct.pointf_s, align 8
  %8 = getelementptr inbounds nuw { double, double }, ptr %6, i32 0, i32 0
  store double %0, ptr %8, align 8
  %9 = getelementptr inbounds nuw { double, double }, ptr %6, i32 0, i32 1
  store double %1, ptr %9, align 8
  %10 = getelementptr inbounds nuw { double, double }, ptr %7, i32 0, i32 0
  store double %2, ptr %10, align 8
  %11 = getelementptr inbounds nuw { double, double }, ptr %7, i32 0, i32 1
  store double %3, ptr %11, align 8
  %12 = getelementptr inbounds nuw %struct.pointf_s, ptr %6, i32 0, i32 0
  %13 = load double, ptr %12, align 8, !tbaa !57
  %14 = getelementptr inbounds nuw %struct.pointf_s, ptr %7, i32 0, i32 0
  %15 = load double, ptr %14, align 8, !tbaa !57
  %16 = fadd double %13, %15
  %17 = getelementptr inbounds nuw %struct.pointf_s, ptr %5, i32 0, i32 0
  store double %16, ptr %17, align 8, !tbaa !57
  %18 = getelementptr inbounds nuw %struct.pointf_s, ptr %6, i32 0, i32 1
  %19 = load double, ptr %18, align 8, !tbaa !59
  %20 = getelementptr inbounds nuw %struct.pointf_s, ptr %7, i32 0, i32 1
  %21 = load double, ptr %20, align 8, !tbaa !59
  %22 = fadd double %19, %21
  %23 = getelementptr inbounds nuw %struct.pointf_s, ptr %5, i32 0, i32 1
  store double %22, ptr %23, align 8, !tbaa !59
  %24 = load { double, double }, ptr %5, align 8
  ret { double, double } %24
}

; Function Attrs: nounwind uwtable
define i32 @packRects(i64 noundef %0, ptr noundef %1, ptr noundef %2) #0 {
  %4 = alloca i32, align 4
  %5 = alloca i64, align 8
  %6 = alloca ptr, align 8
  %7 = alloca ptr, align 8
  %8 = alloca %struct.boxf, align 8
  %9 = alloca i32, align 4
  %10 = alloca ptr, align 8
  %11 = alloca i64, align 8
  %12 = alloca %struct.pointf_s, align 8
  %13 = alloca %struct.pointf_s, align 8
  %14 = alloca %struct.pointf_s, align 8
  store i64 %0, ptr %5, align 8, !tbaa !3
  store ptr %1, ptr %6, align 8, !tbaa !12
  store ptr %2, ptr %7, align 8, !tbaa !12
  call void @llvm.lifetime.start.p0(i64 32, ptr %8) #12
  %15 = load i64, ptr %5, align 8, !tbaa !3
  %16 = icmp ule i64 %15, 1
  br i1 %16, label %17, label %18

17:                                               ; preds = %3
  store i32 0, ptr %4, align 4
  store i32 1, ptr %9, align 4
  br label %78

18:                                               ; preds = %3
  call void @llvm.lifetime.start.p0(i64 8, ptr %10) #12
  %19 = load i64, ptr %5, align 8, !tbaa !3
  %20 = load ptr, ptr %6, align 8, !tbaa !12
  %21 = load ptr, ptr %7, align 8, !tbaa !12
  %22 = call ptr @putRects(i64 noundef %19, ptr noundef %20, ptr noundef %21)
  store ptr %22, ptr %10, align 8, !tbaa !13
  %23 = load ptr, ptr %10, align 8, !tbaa !13
  %24 = icmp ne ptr %23, null
  br i1 %24, label %26, label %25

25:                                               ; preds = %18
  store i32 1, ptr %4, align 4
  store i32 1, ptr %9, align 4
  br label %77

26:                                               ; preds = %18
  call void @llvm.lifetime.start.p0(i64 8, ptr %11) #12
  store i64 0, ptr %11, align 8, !tbaa !3
  br label %27

27:                                               ; preds = %72, %26
  %28 = load i64, ptr %11, align 8, !tbaa !3
  %29 = load i64, ptr %5, align 8, !tbaa !3
  %30 = icmp ult i64 %28, %29
  br i1 %30, label %32, label %31

31:                                               ; preds = %27
  store i32 2, ptr %9, align 4
  call void @llvm.lifetime.end.p0(i64 8, ptr %11) #12
  br label %75

32:                                               ; preds = %27
  %33 = load ptr, ptr %6, align 8, !tbaa !12
  %34 = load i64, ptr %11, align 8, !tbaa !3
  %35 = getelementptr inbounds nuw %struct.boxf, ptr %33, i64 %34
  call void @llvm.memcpy.p0.p0.i64(ptr align 8 %8, ptr align 8 %35, i64 32, i1 false), !tbaa.struct !26
  call void @llvm.lifetime.start.p0(i64 16, ptr %12) #12
  %36 = load ptr, ptr %10, align 8, !tbaa !13
  %37 = load i64, ptr %11, align 8, !tbaa !3
  %38 = getelementptr inbounds nuw %struct.pointf_s, ptr %36, i64 %37
  call void @llvm.memcpy.p0.p0.i64(ptr align 8 %12, ptr align 8 %38, i64 16, i1 false), !tbaa.struct !102
  %39 = getelementptr inbounds nuw %struct.boxf, ptr %8, i32 0, i32 0
  call void @llvm.lifetime.start.p0(i64 16, ptr %13) #12
  %40 = getelementptr inbounds nuw %struct.boxf, ptr %8, i32 0, i32 0
  %41 = getelementptr inbounds nuw { double, double }, ptr %40, i32 0, i32 0
  %42 = load double, ptr %41, align 8
  %43 = getelementptr inbounds nuw { double, double }, ptr %40, i32 0, i32 1
  %44 = load double, ptr %43, align 8
  %45 = getelementptr inbounds nuw { double, double }, ptr %12, i32 0, i32 0
  %46 = load double, ptr %45, align 8
  %47 = getelementptr inbounds nuw { double, double }, ptr %12, i32 0, i32 1
  %48 = load double, ptr %47, align 8
  %49 = call { double, double } @add_pointf(double %42, double %44, double %46, double %48)
  %50 = getelementptr inbounds nuw { double, double }, ptr %13, i32 0, i32 0
  %51 = extractvalue { double, double } %49, 0
  store double %51, ptr %50, align 8
  %52 = getelementptr inbounds nuw { double, double }, ptr %13, i32 0, i32 1
  %53 = extractvalue { double, double } %49, 1
  store double %53, ptr %52, align 8
  call void @llvm.memcpy.p0.p0.i64(ptr align 8 %39, ptr align 8 %13, i64 16, i1 false), !tbaa.struct !102
  call void @llvm.lifetime.end.p0(i64 16, ptr %13) #12
  %54 = getelementptr inbounds nuw %struct.boxf, ptr %8, i32 0, i32 1
  call void @llvm.lifetime.start.p0(i64 16, ptr %14) #12
  %55 = getelementptr inbounds nuw %struct.boxf, ptr %8, i32 0, i32 1
  %56 = getelementptr inbounds nuw { double, double }, ptr %55, i32 0, i32 0
  %57 = load double, ptr %56, align 8
  %58 = getelementptr inbounds nuw { double, double }, ptr %55, i32 0, i32 1
  %59 = load double, ptr %58, align 8
  %60 = getelementptr inbounds nuw { double, double }, ptr %12, i32 0, i32 0
  %61 = load double, ptr %60, align 8
  %62 = getelementptr inbounds nuw { double, double }, ptr %12, i32 0, i32 1
  %63 = load double, ptr %62, align 8
  %64 = call { double, double } @add_pointf(double %57, double %59, double %61, double %63)
  %65 = getelementptr inbounds nuw { double, double }, ptr %14, i32 0, i32 0
  %66 = extractvalue { double, double } %64, 0
  store double %66, ptr %65, align 8
  %67 = getelementptr inbounds nuw { double, double }, ptr %14, i32 0, i32 1
  %68 = extractvalue { double, double } %64, 1
  store double %68, ptr %67, align 8
  call void @llvm.memcpy.p0.p0.i64(ptr align 8 %54, ptr align 8 %14, i64 16, i1 false), !tbaa.struct !102
  call void @llvm.lifetime.end.p0(i64 16, ptr %14) #12
  %69 = load ptr, ptr %6, align 8, !tbaa !12
  %70 = load i64, ptr %11, align 8, !tbaa !3
  %71 = getelementptr inbounds nuw %struct.boxf, ptr %69, i64 %70
  call void @llvm.memcpy.p0.p0.i64(ptr align 8 %71, ptr align 8 %8, i64 32, i1 false), !tbaa.struct !26
  call void @llvm.lifetime.end.p0(i64 16, ptr %12) #12
  br label %72

72:                                               ; preds = %32
  %73 = load i64, ptr %11, align 8, !tbaa !3
  %74 = add i64 %73, 1
  store i64 %74, ptr %11, align 8, !tbaa !3
  br label %27, !llvm.loop !103

75:                                               ; preds = %31
  %76 = load ptr, ptr %10, align 8, !tbaa !13
  call void @free(ptr noundef %76) #12
  store i32 0, ptr %4, align 4
  store i32 1, ptr %9, align 4
  br label %77

77:                                               ; preds = %75, %25
  call void @llvm.lifetime.end.p0(i64 8, ptr %10) #12
  br label %78

78:                                               ; preds = %77, %17
  call void @llvm.lifetime.end.p0(i64 32, ptr %8) #12
  %79 = load i32, ptr %4, align 4
  ret i32 %79
}