; Function Attrs: nounwind uwtable
define range(i32 0, 2) i32 @packRects(i64 noundef %0, ptr noundef captures(none) %1, ptr noundef readonly captures(none) %2) local_unnamed_addr #0 {
  %4 = icmp ult i64 %0, 2
  br i1 %4, label %15, label %5

5:                                                ; preds = %3
  %6 = tail call ptr @putRects(i64 noundef %0, ptr noundef %1, ptr noundef %2)
  %.not = icmp eq ptr %6, null
  br i1 %.not, label %15, label %.preheader

7:                                                ; preds = %.preheader
  tail call void @free(ptr noundef nonnull %6) #19
  br label %15

.preheader:                                       ; preds = %5, %.preheader
  %.02833 = phi i64 [ %14, %.preheader ], [ 0, %5 ]
  %8 = getelementptr inbounds nuw %struct.boxf, ptr %1, i64 %.02833
  %.sroa.012.0.copyload = load double, ptr %8, align 8, !tbaa !52
  %.sroa.6.0..sroa_idx = getelementptr inbounds nuw i8, ptr %8, i64 8
  %.sroa.6.0.copyload = load double, ptr %.sroa.6.0..sroa_idx, align 8, !tbaa !52
  %.sroa.8.0..sroa_idx = getelementptr inbounds nuw i8, ptr %8, i64 16
  %.sroa.8.0.copyload = load double, ptr %.sroa.8.0..sroa_idx, align 8, !tbaa !52
  %.sroa.10.0..sroa_idx = getelementptr inbounds nuw i8, ptr %8, i64 24
  %.sroa.10.0.copyload = load double, ptr %.sroa.10.0..sroa_idx, align 8, !tbaa !52
  %9 = getelementptr inbounds nuw %struct.pointf_s, ptr %6, i64 %.02833
  %.sroa.03.0.copyload = load double, ptr %9, align 8, !tbaa !52
  %.sroa.5.0..sroa_idx = getelementptr inbounds nuw i8, ptr %9, i64 8
  %.sroa.5.0.copyload = load double, ptr %.sroa.5.0..sroa_idx, align 8, !tbaa !52
  %10 = fadd double %.sroa.012.0.copyload, %.sroa.03.0.copyload
  %11 = fadd double %.sroa.6.0.copyload, %.sroa.5.0.copyload
  %12 = fadd double %.sroa.8.0.copyload, %.sroa.03.0.copyload
  %13 = fadd double %.sroa.10.0.copyload, %.sroa.5.0.copyload
  store double %10, ptr %8, align 8, !tbaa !52
  store double %11, ptr %.sroa.6.0..sroa_idx, align 8, !tbaa !52
  store double %12, ptr %.sroa.8.0..sroa_idx, align 8, !tbaa !52
  store double %13, ptr %.sroa.10.0..sroa_idx, align 8, !tbaa !52
  %14 = add nuw i64 %.02833, 1
  %exitcond.not = icmp eq i64 %14, %0
  br i1 %exitcond.not, label %7, label %.preheader, !llvm.loop !127

15:                                               ; preds = %7, %5, %3
  %.0 = phi i32 [ 0, %3 ], [ 0, %7 ], [ 1, %5 ]
  ret i32 %.0
}